; Function Attrs: nounwind uwtable
define internal range(i32 0, 2) i32 @test_gentime() #0 {
  %1 = alloca [15 x i8], align 1
  %2 = alloca ptr, align 8
  call void @llvm.lifetime.start.p0(i64 15, ptr nonnull %1) #4
  call void @llvm.memcpy.p0.p0.i64(ptr noundef nonnull align 1 dereferenceable(15) %1, ptr noundef nonnull align 1 dereferenceable(15) @__const.test_gentime.der, i64 15, i1 false)
  call void @llvm.lifetime.start.p0(i64 8, ptr nonnull %2) #4
  store ptr %1, ptr %2, align 8, !tbaa !4
  %3 = call ptr @d2i_ASN1_GENERALIZEDTIME(ptr noundef null, ptr noundef nonnull %2, i64 noundef 15) #4
  %4 = call i32 @test_ptr_null(ptr noundef nonnull @.str.14, i32 noundef 182, ptr noundef nonnull @.str.15, ptr noundef %3) #4
  %.not = icmp ne i32 %4, 0
  %spec.select = zext i1 %.not to i32
  call void @ASN1_GENERALIZEDTIME_free(ptr noundef %3) #4
  call void @llvm.lifetime.end.p0(i64 8, ptr nonnull %2) #4
  call void @llvm.lifetime.end.p0(i64 15, ptr nonnull %1) #4
  ret i32 %spec.select
}